(lp0
(lp1
I0
aF5.830951894845301
aF9.340770846134703
aF50.59644256269407
aF50.92150822589606
aF70.83078426785913
aF71.80529228406496
aF65.30696746902278
aF22.20360331117452
aF2.692582403567252
aF17.356554957709783
aF49.24428900898052
aF52.773099207835045
aF53.67727638395972
aF52.61178575186362
aF2.8284271247461903
aF9.219544457292887
aF22.360679774997898
aF27.586228448267445
aF25.80697580112788
aF10.295630140987
aF10.062305898749054
aF63.245553203367585
aF64.07027391856539
aF0.01
aF34.9857113690718
aF61.85466837676846
aF81.49846624323675
aF129.8345100502944
aF82.21921916437786
aF41.7612260356422
aF50.48762224545735
aF51.62363799656123
aF65.25335240430181
aF45.0111097397076
aF54.66488818245218
aF29.274562336608895
aF21.213203435596427
aF22.090722034374522
aF39.11521443121589
aF39.613760235554516
aF41.48493702538308
aF28.071337695236398
aF30.0
aF30.610455730027933
aa(lp2
F5.830951894845301
aI0
aF4.031128874149275
aF46.32493928760188
aF46.57252408878007
aF66.91038783328041
aF67.89698078707183
aF61.5223536610881
aF27.0
aF4.031128874149275
aF17.269916039170543
aF46.14108798023731
aF48.507731342539614
aF49.35838327984416
aF48.27007354458868
aF3.1622776601683795
aF6.4031242374328485
aF19.849433241279208
aF26.92582403567252
aF31.622776601683793
aF16.1245154965971
aF15.88238017426859
aF68.60029154456998
aF69.40461079784254
aF5.822379238764854
aF40.22437072223753
aF67.20119046564577
aF78.10249675906654
aF131.82184947875675
aF79.76214641043707
aF40.718546143004666
aF48.507731342539614
aF49.72926703662542
aF63.90618123468183
aF42.42640687119285
aF51.119956963988145
aF26.019223662515376
aF18.110770276274835
aF19.235384061671343
aF36.87817782917155
aF37.36642878306676
aF40.311288741492746
aF25.96150997149434
aF31.144823004794873
aF31.89043743820395
aa(lp3
F9.340770846134703
aF4.031128874149275
aI0
aF46.03531253288067
aF46.19794367718113
aF66.86740611089981
aF67.86199230791857
aF61.629944020743686
aF31.00403199585499
aF8.0
aF15.700318468107582
aF42.45291509425472
aF44.51123453691214
aF45.35416188179427
aF44.263416045307665
aF7.0178344238090995
aF4.5
aF16.650825805346713
aF24.62214450449026
aF34.73110997362451
aF19.5
aF19.313207915827967
aF70.67708256570867
aF71.45103218288732
aF9.331136050878264
aF42.25221887664599
aF69.26940161427699
aF78.5
aF135.30059127734808
aF80.9027193609708
aF42.97964634568321
aF50.12235030403104
aF51.39309292113095
aF65.85020880756568
aF43.660622991432454
aF51.50242712727236
aF26.9675731203236
aF19.448650338776723
aF20.71834935510066
aF38.421998906876254
aF38.897300677553446
aF42.5
aF27.77138815399763
aF34.514489710844636
aF35.302266216207705
aa(lp4
F50.59644256269407
aF46.32493928760188
aF46.03531253288067
aI0
aF1.0
aF21.0
aF22.0
aF16.278820596099706
aF58.89821729050889
aF47.90876746483883
aF61.1657583947097
aF73.92563831310488
aF67.4166151627327
aF67.53702688155587
aF66.57326790837296
aF48.08326112068523
aF50.48762224545735
aF58.137767414994535
aF68.06614430096654
aF73.06161783043132
aF58.60034129593445
aF58.148516748065035
aF112.71202242884297
aF113.6001760562016
aF50.593281174480076
aF85.0881895447306
aF111.36426715962351
aF33.734255586866
aF120.50311199301038
aF40.496913462633174
aF29.120439557122072
aF23.08679276123039
aF24.186773244895647
aF36.24913792078372
aF17.26267650163207
aF9.604686356149273
aF22.47220505424423
aF29.966648127543394
aF29.5296461204668
aF21.02379604162864
aF20.81465829649865
aF28.160255680657446
aF26.90724809414742
aF41.617304093369626
aF42.43819034784589
aa(lp5
F50.92150822589606
aF46.57252408878007
aF46.19794367718113
aF1.0
aI0
aF21.02379604162864
aF22.02271554554524
aF16.492422502470642
aF59.54829972383762
aF48.23121395942673
aF61.2474489264655
aF73.53910524340094
aF66.88796603276258
aF66.99440275127468
aF66.03786792439622
aF48.38388161361178
aF50.635955604688654
aF58.077534382926416
aF68.0294054067798
aF73.57309290766564
aF59.033888572581766
aF58.58540773947041
aF113.17685275708986
aF114.06138698087096
aF50.918170626997195
aF85.492689745966
aF111.8257573191436
aF33.95585369269929
aF121.45781160551181
aF41.048751503547585
aF30.083217912982647
aF24.08318915758459
aF25.179356624028344
aF37.16180835212409
aF18.24828759089466
aF10.404326023342406
aF23.021728866442675
aF30.4138126514911
aF30.01666203960727
aF21.93171219946131
aF21.73131381210073
aF29.120439557122072
aF27.586228448267445
aF42.43819034784589
aF43.266615305567875
aa(lp6
F70.83078426785913
aF66.91038783328041
aF66.86740611089981
aF21.0
aF21.02379604162864
aI0
aF1.0
aF5.830951894845301
aF76.15773105863909
aF68.17074152449862
aF82.12338278468563
aF93.60555539069249
aF85.90692637965812
aF85.87927573052768
aF85.0
aF68.4470598345904
aF71.34423592694787
aF79.1012010022604
aF89.05054744357274
aF91.7877987534291
aF78.10889834071403
aF77.6353656525169
aF131.70041761513136
aF132.61975720080324
aF70.82852603294805
aF104.67568963231147
aF130.3878828726044
aF13.892443989449804
aF115.97413504743201
aF25.553864678361276
aF40.311288741492746
aF29.832867780352597
aF30.0
aF33.54101966249684
aF29.410882339705484
aF16.77050983124842
aF41.7612260356422
aF49.72926703662542
aF49.040799340956916
aF35.510561809129406
aF35.0891721190455
aF39.6232255123179
aF44.77722635447622
aF56.4003546088143
aF57.0087712549569
aa(lp7
F71.80529228406496
aF67.89698078707183
aF67.86199230791857
aF22.0
aF22.02271554554524
aF1.0
aI0
aF6.708203932499369
aF77.02596964660685
aF69.14658342969665
aF83.12189843837784
aF94.5568612000208
aF86.81589716175259
aF86.7827747885489
aF85.90692637965812
aF69.42621983083913
aF72.3394774656273
aF80.09993757800315
aF90.0499861188218
aF92.70382947861431
aF79.05694150420949
aF78.58275892331599
aF132.61975720080324
aF133.5402561027947
aF71.8030646978247
aF105.62196741208714
aF131.30879635424276
aF13.038404810405298
aF115.84903970253703
aF25.059928172283335
aF41.036569057366385
aF30.479501308256342
aF30.610455730027933
aF33.734255586866
aF30.23243291566195
aF17.67059704707229
aF42.720018726587654
aF50.695167422546305
aF50.0
aF36.359317925395686
aF35.9339672176619
aF40.36087214122113
aF45.69463863518345
aF57.201398584300364
aF57.8013840664737
aa(lp8
F65.30696746902278
aF61.5223536610881
aF61.629944020743686
aF16.278820596099706
aF16.492422502470642
aF5.830951894845301
aF6.708203932499369
aI0
aF70.32780389006896
aF62.659795722616266
aF77.01460900374681
aF89.88882021697692
aF82.76472678623425
aF82.80247580839597
aF81.88406438373708
aF62.96824596572466
aF66.12110101926616
aF74.33034373659252
aF84.2140130857092
aF86.00581375697809
aF72.42237223399962
aF71.9461604256961
aF125.92458060283545
aF126.84636376341263
aF65.30497760508
aF98.97979591815695
aF124.61540835707277
aF17.46424919657298
aF113.77170122662314
aF26.1725046566048
aF34.655446902326915
aF24.413111231467404
aF24.698178070456937
aF30.01666203960727
aF23.600847442411894
aF10.965856099730654
aF36.138621999185304
aF44.14748010928823
aF43.41658669218482
aF29.68164415931166
aF29.261749776799064
aF33.94112549695428
aF39.0
aF50.60632371551998
aF51.22499389946279
aa(lp9
F22.20360331117452
aF27.0
aF31.00403199585499
aF58.89821729050889
aF59.54829972383762
aF76.15773105863909
aF77.02596964660685
aF70.32780389006896
aI0
aF23.005434140654682
aF37.12478956169314
aF70.83784299369935
aF74.96665925596525
aF75.87654446533527
aF74.81310045707235
aF24.020824298928627
aF31.400636936215164
aF43.965895873961216
aF47.01063709417264
aF18.027756377319946
aF15.264337522473747
aF15.008331019803634
aF56.753854494650845
aF57.723478758647246
aF22.21351165394612
aF33.24154027718932
aF55.54277630799526
aF83.93449827097318
aF111.75866856758807
aF80.60397012554654
aF38.3275357934736
aF49.33558553417604
aF50.0
aF60.207972893961475
aF46.95742752749558
aF59.42432162002356
aF36.76955262170047
aF30.805843601498726
aF30.610455730027933
aF40.70626487409524
aF41.14911906711977
aF38.600518131237564
aF32.01562118716424
aF21.37755832643195
aF21.213203435596427
aa(lp10
F2.692582403567252
aF4.031128874149275
aF8.0
aF47.90876746483883
aF48.23121395942673
aF68.17074152449862
aF69.14658342969665
aF62.659795722616266
aF23.005434140654682
aI0
aF18.721645226849056
aF49.4191258522447
aF52.28049349422785
aF53.150729063673246
aF52.06966487312935
aF1.118033988749895
aF9.17877987534291
aF22.74313083108832
aF28.81405906844782
aF28.111385593741193
aF12.5
aF12.206555615733702
aF65.8729838401146
aF66.7026985960838
aF2.6888845270855346
aF37.646380968162134
aF64.48449426024833
aF78.90659034580065
aF129.0048448702606
aF79.8075810935277
aF39.68941924493227
aF48.16897341650536
aF49.327983944207574
aF63.120915709454025
aF42.547032799009614
aF52.04325124355702
aF26.669270706189174
aF18.607794065928395
aF19.525624189766635
aF36.718523935474316
aF37.21558813185679
aF39.37321424522006
aF25.675864152935535
aF28.692333470807146
aF29.364093720052047
aa(lp11
F17.356554957709783
aF17.269916039170543
aF15.700318468107582
aF61.1657583947097
aF61.2474489264655
aF82.12338278468563
aF83.12189843837784
aF77.01460900374681
aF37.12478956169314
aF18.721645226849056
aI0
aF34.2235299172952
aF40.697051490249265
aF41.743262929483606
aF40.80747480548141
aF17.755280904564703
aF11.280514172678478
aF9.013878188659973
aF10.259142264341596
aF32.56148031032987
aF22.005681084665387
aF22.192341021172147
aF61.4593361500106
aF62.09871174187111
aF17.34993083559701
aF34.04776057246644
aF60.05206074732157
aF94.03323880415903
aF147.03485981222275
aF96.59839543180829
aF57.97628825649328
aF65.66010965571105
aF66.90478308760892
aF81.16803558051654
aF59.33169473392783
aF67.06713054842886
aF42.66438795998368
aF35.04639781775011
aF36.26637561157718
aF53.983793864455286
aF54.46558546458488
aF57.578207683115664
aF43.165379646193315
aF47.32071428032337
aF47.95049530505394
aa(lp12
F49.24428900898052
aF46.14108798023731
aF42.45291509425472
aF73.92563831310488
aF73.53910524340094
aF93.60555539069249
aF94.5568612000208
aF89.88882021697692
aF70.83784299369935
aF49.4191258522447
aF34.2235299172952
aI0
aF13.038404810405298
aF14.0089257261219
aF13.892443989449804
aF48.30113870293329
aF40.24922359499622
aF26.92582403567252
aF26.0
aF66.18912297349165
aF56.04462507680822
aF56.18051263561058
aF87.09190547921202
aF87.46427842267951
aF49.23515106100518
aF63.788713735268246
aF85.7962703152066
aF107.2240644631605
aF177.62882648939615
aF114.03946685248927
aF82.75868534480233
aF87.20091742636656
aF88.60022573334675
aF103.60019305001319
aF79.63039620647382
aF82.51212032180484
aF63.89053137985315
aF58.69412236331676
aF60.108235708594876
aF76.05918747922567
aF76.4476945368531
aF82.07313811473277
aF67.17886572427373
aF76.84399781375251
aF77.6659513557904
aa(lp13
F52.773099207835045
aF48.507731342539614
aF44.51123453691214
aF67.4166151627327
aF66.88796603276258
aF85.90692637965812
aF86.81589716175259
aF82.76472678623425
aF74.96665925596525
aF52.28049349422785
aF40.697051490249265
aF13.038404810405298
aI0
aF1.118033988749895
aF1.0
aF51.19570294468082
aF43.56604182158393
aF32.01562118716424
aF34.785054261852174
aF73.24616030891995
aF61.1310068623117
aF61.1657583947097
aF97.94386147176351
aF98.38699100999075
aF52.76324573033771
aF73.08214556237385
aF96.60745312862771
aF99.74467404327912
aF177.341478509682
aF107.91200118615167
aF80.60397012554654
aF83.43860018001261
aF84.8528137423857
aF99.72462083156798
aF75.66372975210778
aF76.55880093104906
aF61.220911460055866
aF57.4543296888929
aF58.83026432033091
aF73.0
aF73.32973476019124
aF79.81227975693966
aF65.45991139621256
aF77.38862965578342
aF78.29431652425353
aa(lp14
F53.67727638395972
aF49.35838327984416
aF45.35416188179427
aF67.53702688155587
aF66.99440275127468
aF85.87927573052768
aF86.7827747885489
aF82.80247580839597
aF75.87654446533527
aF53.150729063673246
aF41.743262929483606
aF14.0089257261219
aF1.118033988749895
aI0
aF1.118033988749895
aF52.06966487312935
aF44.477522413012174
aF33.03407331831786
aF35.892199709686224
aF74.28492444635049
aF62.09871174187111
aF62.12889826803627
aF99.06184936694852
aF99.50502499874064
aF53.66740258294601
aF74.18389313051722
aF97.72538053136452
aF99.73088789337032
aF177.93327401023114
aF108.03355960070925
aF81.1002466087496
aF83.79886634078053
aF85.21296849658508
aF100.06123125366787
aF76.0148011902945
aF76.72352963726317
aF61.702917273010684
aF58.0538543078752
aF59.42432162002356
aF73.43194127898295
aF73.7563556583431
aF80.30099625782982
aF66.00946901770988
aF78.08488970345032
aF78.99525302193797
aa(lp15
F52.61178575186362
aF48.27007354458868
aF44.263416045307665
aF66.57326790837296
aF66.03786792439622
aF85.0
aF85.90692637965812
aF81.88406438373708
aF74.81310045707235
aF52.06966487312935
aF40.80747480548141
aF13.892443989449804
aF1.0
aF1.118033988749895
aI0
aF50.99019513592785
aF43.41658669218482
aF32.0624390837628
aF35.11409973215888
aF73.33484846919642
aF61.07372593840988
aF61.10032733136542
aF98.38699100999075
aF98.8382517044894
aF52.60190205686483
aF73.37574531137656
aF97.04638066409278
aF98.84331034521254
aF176.81911661356077
aF107.07007051459338
aF80.0
aF82.73451516749222
aF84.1486779456457
aF99.00505037623081
aF74.95331880577403
aF75.73803535872844
aF60.60528029800704
aF56.938563381947034
aF58.309518948453004
aF72.34638899074369
aF72.67220926874316
aF79.20227269466452
aF64.89992295835181
aF76.96752561957543
aF77.87810988975015
aa(lp16
F2.8284271247461903
aF3.1622776601683795
aF7.0178344238090995
aF48.08326112068523
aF48.38388161361178
aF68.4470598345904
aF69.42621983083913
aF62.96824596572466
aF24.020824298928627
aF1.118033988749895
aF17.755280904564703
aF48.30113870293329
aF51.19570294468082
aF52.06966487312935
aF50.99019513592785
aI0
aF8.06225774829855
aF21.633307652783937
aF27.80287754891569
aF28.600699292150182
aF13.038404810405298
aF12.776932339180638
aF66.03029607687671
aF66.85057965343307
aF2.8213649179076428
aF37.73592452822641
aF64.63745044476924
aF79.30952023559341
aF130.09611831257686
aF80.39900496896712
aF40.496913462633174
aF48.83646178829912
aF50.00999900019995
aF63.89053137985315
aF43.104524124504614
aF52.40467536394057
aF27.073972741361768
aF19.026297590440446
aF20.0
aF37.33630940518894
aF37.83186487605389
aF40.162171256046406
aF26.30589287593181
aF29.732137494637012
aF30.4138126514911
aa(lp17
F9.219544457292887
aF6.4031242374328485
aF4.5
aF50.48762224545735
aF50.635955604688654
aF71.34423592694787
aF72.3394774656273
aF66.12110101926616
aF31.400636936215164
aF9.17877987534291
aF11.280514172678478
aF40.24922359499622
aF43.56604182158393
aF44.477522413012174
aF43.41658669218482
aF8.06225774829855
aI0
aF13.601470508735444
aF20.591260281974
aF32.69556544854363
aF18.24828759089466
aF18.172781845386247
aF67.26812023536856
aF68.01470429252781
aF9.20978284217386
aF38.897300677553446
aF65.85590330410783
aF83.0
aF138.05795884337854
aF85.32877591996736
aF46.95742752749558
aF54.405882034941776
aF55.65968020030299
aF70.00714249274856
aF48.05205510693585
aF56.00223209837265
aF31.400636936215164
aF23.769728648009426
aF25.0
aF42.720018726587654
aF43.200115740585694
aF46.51881339845203
aF31.953090617340916
aF37.48332962798263
aF38.2099463490856
aa(lp18
F22.360679774997898
aF19.849433241279208
aF16.650825805346713
aF58.137767414994535
aF58.077534382926416
aF79.1012010022604
aF80.09993757800315
aF74.33034373659252
aF43.965895873961216
aF22.74313083108832
aF9.013878188659973
aF26.92582403567252
aF32.01562118716424
aF33.03407331831786
aF32.0624390837628
aF21.633307652783937
aF13.601470508735444
aI0
aF10.04987562112089
aF41.30375285612676
aF29.427877939124322
aF29.516944286290883
aF70.0
aF70.60453243241541
aF22.351735950480446
aF42.941821107167776
aF68.60029154456998
aF91.6624241442479
aF151.64761785138597
aF95.60334722173695
aF59.36328831862332
aF65.79513659838392
aF67.11929677819934
aF81.8413098624405
aF58.872744118140105
aF65.02499519415592
aF42.15447781671598
aF35.35533905932738
aF36.71511950137164
aF54.12947441089743
aF54.582506355058484
aF58.83026432033091
aF43.9089968002003
aF50.99019513592785
aF51.73973328110612
aa(lp19
F27.586228448267445
aF26.92582403567252
aF24.62214450449026
aF68.06614430096654
aF68.0294054067798
aF89.05054744357274
aF90.0499861188218
aF84.2140130857092
aF47.01063709417264
aF28.81405906844782
aF10.259142264341596
aF26.0
aF34.785054261852174
aF35.892199709686224
aF35.11409973215888
aF27.80287754891569
aF20.591260281974
aF10.04987562112089
aI0
aF40.311288741492746
aF31.76476034853718
aF32.00390601161052
aF63.631753079732135
aF64.1404708432983
aF27.579341906579277
aF38.3275357934736
aF62.26556030423239
aF101.49384217774002
aF157.2895419282541
aF105.01904589168576
aF67.53517601961218
aF74.67261881037788
aF75.96051605933177
aF90.47098982546837
aF68.00735254367721
aF74.74122022017035
aF51.24451190127583
aF44.01136216933077
aF45.31004303683677
aF62.96824596572466
aF63.43697659882602
aF67.08203932499369
aF52.392747589718944
aF57.48912940721924
aF58.137767414994535
aa(lp20
F25.80697580112788
aF31.622776601683793
aF34.73110997362451
aF73.06161783043132
aF73.57309290766564
aF91.7877987534291
aF92.70382947861431
aF86.00581375697809
aF18.027756377319946
aF28.111385593741193
aF32.56148031032987
aF66.18912297349165
aF73.24616030891995
aF74.28492444635049
aF73.33484846919642
aF28.600699292150182
aF32.69556544854363
aF41.30375285612676
aF40.311288741492746
aI0
aF15.620499351813308
aF15.945218719101975
aF39.92492955535426
aF40.85339643163099
aF25.815113790181133
aF15.297058540778355
aF38.62641583165593
aF100.57832768544127
aF126.03570922560003
aF98.15294188153507
aF55.731499172371095
aF66.49060083951716
aF67.26812023536856
aF78.10249675906654
aF63.245553203367585
aF75.04165509901817
aF50.60632371551998
aF43.266615305567875
aF43.56604182158393
aF56.92099788303083
aF57.39555731936053
aF55.90169943749474
aF47.01063709417264
aF39.11521443121589
aF39.05124837953327
aa(lp21
F10.295630140987
aF16.1245154965971
aF19.5
aF58.60034129593445
aF59.033888572581766
aF78.10889834071403
aF79.05694150420949
aF72.42237223399962
aF15.264337522473747
aF12.5
aF22.005681084665387
aF56.04462507680822
aF61.1310068623117
aF62.09871174187111
aF61.07372593840988
aF13.038404810405298
aF18.24828759089466
aF29.427877939124322
aF31.76476034853718
aF15.620499351813308
aI0
aF0.5
aF54.20332093147061
aF55.072679252057455
aF10.304372858160752
aF26.570660511172846
aF52.839379254491625
aF87.86353054595519
aF126.57408897558773
aF87.05170877128145
aF45.09988913511872
aF55.036351623268054
aF56.00892785976178
aF68.46897107449476
aF50.635955604688654
aF61.54063698077881
aF36.40054944640259
aF28.635642126552707
aF29.154759474226502
aF44.40720662234904
aF44.90267252625394
aF45.044422518220834
aF33.734255586866
aF30.364452901377952
aF30.675723300355934
aa(lp22
F10.062305898749054
aF15.88238017426859
aF19.313207915827967
aF58.148516748065035
aF58.58540773947041
aF77.6353656525169
aF78.58275892331599
aF71.9461604256961
aF15.008331019803634
aF12.206555615733702
aF22.192341021172147
aF56.18051263561058
aF61.1657583947097
aF62.12889826803627
aF61.10032733136542
aF12.776932339180638
aF18.172781845386247
aF29.516944286290883
aF32.00390601161052
aF15.945218719101975
aF0.5
aI0
aF54.637441374939954
aF55.509008277936296
aF10.071251163584392
aF27.04163456597992
aF53.27522876534647
aF87.3741952752642
aF126.22301691846856
aF86.5520074868284
aF44.60100895719737
aF54.536684901082864
aF55.509008277936296
aF67.97242087788253
aF50.1422975141746
aF61.06144446375307
aF35.9339672176619
aF28.182441342083905
aF28.692333470807146
aF43.91184350491334
aF44.40720662234904
aF44.54492114708477
aF33.24530041975858
aF29.88728826775691
aF30.20347662107791
aa(lp23
F63.245553203367585
aF68.60029154456998
aF70.67708256570867
aF112.71202242884297
aF113.17685275708986
aF131.70041761513136
aF132.61975720080324
aF125.92458060283545
aF56.753854494650845
aF65.8729838401146
aF61.4593361500106
aF87.09190547921202
aF97.94386147176351
aF99.06184936694852
aF98.38699100999075
aF66.03029607687671
aF67.26812023536856
aF70.0
aF63.631753079732135
aF39.92492955535426
aF54.20332093147061
aF54.637441374939954
aI0
aF1.0
aF63.251245837532714
aF28.42534080710379
aF1.4142135623730951
aF140.40655255364686
aF149.88328792764054
aF137.31715115017496
aF95.0789145920377
aF106.04244433244644
aF106.7379969832674
aF116.55899793666725
aF103.12128781197411
aF114.96195022702076
aF90.33825324855468
aF82.76472678623425
aF83.18653737234169
aF96.79876032264049
aF97.26895702124085
aF95.33624704172071
aF86.92525524840292
aF78.10249675906654
aF77.87810988975015
aa(lp24
F64.07027391856539
aF69.40461079784254
aF71.45103218288732
aF113.6001760562016
aF114.06138698087096
aF132.61975720080324
aF133.5402561027947
aF126.84636376341263
aF57.723478758647246
aF66.7026985960838
aF62.09871174187111
aF87.46427842267951
aF98.38699100999075
aF99.50502499874064
aF98.8382517044894
aF66.85057965343307
aF68.01470429252781
aF70.60453243241541
aF64.1404708432983
aF40.85339643163099
aF55.072679252057455
aF55.509008277936296
aF1.0
aI0
aF64.07589328288759
aF29.206163733020468
aF2.23606797749979
aF141.35416513141735
aF150.7912464302885
aF138.2931668593933
aF96.04686356149273
aF107.00467279516349
aF107.70329614269008
aF117.5457357797381
aF104.06248123122954
aF115.8846409150065
aF91.23595782365635
aF83.64807230295268
aF84.07734534343957
aF97.73944955850733
aF98.21023368264633
aF96.30160954002794
aF87.84645695758026
aF79.07591289387686
aF78.85429601486528
aa(lp25
F0.01
aF5.822379238764854
aF9.331136050878264
aF50.593281174480076
aF50.918170626997195
aF70.82852603294805
aF71.8030646978247
aF65.30497760508
aF22.21351165394612
aF2.6888845270855346
aF17.34993083559701
aF49.23515106100518
aF52.76324573033771
aF53.66740258294601
aF52.60190205686483
aF2.8213649179076428
aF9.20978284217386
aF22.351735950480446
aF27.579341906579277
aF25.815113790181133
aF10.304372858160752
aF10.071251163584392
aF63.251245837532714
aF64.07589328288759
aI0
aF34.99085737732072
aF61.86032735121921
aF81.49736253401088
aF129.8421353028361
aF82.21994952564737
aF41.76410061284692
aF50.4890096951802
aF51.62518861951015
aF65.2559583486443
aF45.011333017363526
aF54.66333414639104
aF29.2731976387958
aF21.21179153207008
aF22.089818921847233
aF39.115982666935516
aF39.61451880308532
aF41.48758971065926
aF28.072051937825993
aF30.006001066453358
aF30.61666376338219
aa(lp26
F34.9857113690718
aF40.22437072223753
aF42.25221887664599
aF85.0881895447306
aF85.492689745966
aF104.67568963231147
aF105.62196741208714
aF98.97979591815695
aF33.24154027718932
aF37.646380968162134
aF34.04776057246644
aF63.788713735268246
aF73.08214556237385
aF74.18389313051722
aF73.37574531137656
aF37.73592452822641
aF38.897300677553446
aF42.941821107167776
aF38.3275357934736
aF15.297058540778355
aF26.570660511172846
aF27.04163456597992
aF28.42534080710379
aF29.206163733020468
aF34.99085737732072
aI0
aF27.018512172212592
aF114.23659658795863
aF139.84634424968
aF112.64102272262978
aF70.25667228100119
aF80.75270893288967
aF81.61494961096282
aF93.00537618869137
aF76.90253571892151
aF88.08092869628476
aF62.96824596572466
aF55.154328932550705
aF55.71355310873648
aF70.61161377563892
aF71.10028129339574
aF70.34912934784623
aF60.166435825965294
aF54.0
aF54.00925846556311
aa(lp27
F61.85466837676846
aF67.20119046564577
aF69.26940161427699
aF111.36426715962351
aF111.8257573191436
aF130.3878828726044
aF131.30879635424276
aF124.61540835707277
aF55.54277630799526
aF64.48449426024833
aF60.05206074732157
aF85.7962703152066
aF96.60745312862771
aF97.72538053136452
aF97.04638066409278
aF64.63745044476924
aF65.85590330410783
aF68.60029154456998
aF62.26556030423239
aF38.62641583165593
aF52.839379254491625
aF53.27522876534647
aF1.4142135623730951
aF2.23606797749979
aF61.86032735121921
aF27.018512172212592
aI0
aF139.1402170474087
aF149.40214188558343
aF136.12494260788506
aF93.86160024205851
aF104.80935072788114
aF105.51303237041384
aF115.41230437002807
aF101.84301645179212
aF113.6540804370877
aF89.0
aF81.41252974819048
aF81.8413098624405
aF95.51963149007642
aF95.99088498394
aF94.11163583744573
aF85.61541917201598
aF76.90253571892151
aF76.68767828015137
aa(lp28
F81.49846624323675
aF78.10249675906654
aF78.5
aF33.734255586866
aF33.95585369269929
aF13.892443989449804
aF13.038404810405298
aF17.46424919657298
aF83.93449827097318
aF78.90659034580065
aF94.03323880415903
aF107.2240644631605
aF99.74467404327912
aF99.73088789337032
aF98.84331034521254
aF79.30952023559341
aF83.0
aF91.6624241442479
aF101.49384217774002
aF100.57832768544127
aF87.86353054595519
aF87.3741952752642
aF140.40655255364686
aF141.35416513141735
aF81.49736253401088
aF114.23659658795863
aF139.1402170474087
aI0
aF108.04165863221463
aF15.033296378372908
aF46.06517122512408
aF34.88552708502482
aF34.48187929913333
aF31.622776601683793
aF37.36308338453881
aF27.004629232781554
aF52.23983154643591
aF60.29925372672534
aF59.413803110051795
aF43.68065933568311
aF43.200115740585694
aF45.617978911828175
aF54.12947441089743
aF63.071388124885914
aF63.50590523722971
aa(lp29
F129.8345100502944
aF131.82184947875675
aF135.30059127734808
aF120.50311199301038
aF121.45781160551181
aF115.97413504743201
aF115.84903970253703
aF113.77170122662314
aF111.75866856758807
aF129.0048448702606
aF147.03485981222275
aF177.62882648939615
aF177.341478509682
aF177.93327401023114
aF176.81911661356077
aF130.09611831257686
aF138.05795884337854
aF151.64761785138597
aF157.2895419282541
aF126.03570922560003
aF126.57408897558773
aF126.22301691846856
aF149.88328792764054
aF150.7912464302885
aF129.8421353028361
aF139.84634424968
aF149.40214188558343
aF108.04165863221463
aI0
aF93.02150289046077
aF97.49358953285082
aF98.08159868191383
aF96.79876032264049
aF84.64632301523794
aF105.47511554864494
aF111.60757142774858
aF116.76472069936193
aF119.8874472161285
aF118.51160280748886
aF106.02358228243375
aF105.81233387464809
aF98.38699100999075
aF112.0044641967453
aF100.80178569846865
aF100.0
aa(lp30
F82.21921916437786
aF79.76214641043707
aF80.9027193609708
aF40.496913462633174
aF41.048751503547585
aF25.553864678361276
aF25.059928172283335
aF26.1725046566048
aF80.60397012554654
aF79.8075810935277
aF96.59839543180829
aF114.03946685248927
aF107.91200118615167
aF108.03355960070925
aF107.07007051459338
aF80.39900496896712
aF85.32877591996736
aF95.60334722173695
aF105.01904589168576
aF98.15294188153507
aF87.05170877128145
aF86.5520074868284
aF137.31715115017496
aF138.2931668593933
aF82.21994952564737
aF112.64102272262978
aF136.12494260788506
aF15.033296378372908
aF93.02150289046077
aI0
aF42.42640687119285
aF32.01562118716424
aF31.064449134018133
aF21.95449840010015
aF37.33630940518894
aF31.531730050855124
aF53.9351462406472
aF61.66036003787198
aF60.530983801686226
aF43.104524124504614
aF42.60575078554537
aF42.2965719651132
aF54.147945482723536
aF59.22837157984339
aF59.43904440685432
aa(lp31
F41.7612260356422
aF40.718546143004666
aF42.97964634568321
aF29.120439557122072
aF30.083217912982647
aF40.311288741492746
aF41.036569057366385
aF34.655446902326915
aF38.3275357934736
aF39.68941924493227
aF57.97628825649328
aF82.75868534480233
aF80.60397012554654
aF81.1002466087496
aF80.0
aF40.496913462633174
aF46.95742752749558
aF59.36328831862332
aF67.53517601961218
aF55.731499172371095
aF45.09988913511872
aF44.60100895719737
aF95.0789145920377
aF96.04686356149273
aF41.76410061284692
aF70.25667228100119
aF93.86160024205851
aF46.06517122512408
aF97.49358953285082
aF42.42640687119285
aI0
aF11.180339887498949
aF11.704699910719626
aF23.53720459187964
aF12.083045973594572
aF24.82438317461282
aF19.4164878389476
aF24.20743687382041
aF22.80350850198276
aF9.055385138137417
aF9.013878188659973
aF1.0
aF15.620499351813308
aF17.08800749063506
aF17.46424919657298
aa(lp32
F50.48762224545735
aF48.507731342539614
aF50.12235030403104
aF23.08679276123039
aF24.08318915758459
aF29.832867780352597
aF30.479501308256342
aF24.413111231467404
aF49.33558553417604
aF48.16897341650536
aF65.66010965571105
aF87.20091742636656
aF83.43860018001261
aF83.79886634078053
aF82.73451516749222
aF48.83646178829912
aF54.405882034941776
aF65.79513659838392
aF74.67261881037788
aF66.49060083951716
aF55.036351623268054
aF54.536684901082864
aF106.04244433244644
aF107.00467279516349
aF50.4890096951802
aF80.75270893288967
aF104.80935072788114
aF34.88552708502482
aF98.08159868191383
aF32.01562118716424
aF11.180339887498949
aI0
aF1.4142135623730951
aF16.401219466856727
aF7.810249675906654
aF16.00781059358212
aF23.706539182259394
aF30.675723300355934
aF29.410882339705484
aF11.704699910719626
aF11.236102527122116
aF10.770329614269007
aF22.561028345356956
aF28.231188426986208
aF28.635642126552707
aa(lp33
F51.62363799656123
aF49.72926703662542
aF51.39309292113095
aF24.186773244895647
aF25.179356624028344
aF30.0
aF30.610455730027933
aF24.698178070456937
aF50.0
aF49.327983944207574
aF66.90478308760892
aF88.60022573334675
aF84.8528137423857
aF85.21296849658508
aF84.1486779456457
aF50.00999900019995
aF55.65968020030299
aF67.11929677819934
aF75.96051605933177
aF67.26812023536856
aF56.00892785976178
aF55.509008277936296
aF106.7379969832674
aF107.70329614269008
aF51.62518861951015
aF81.61494961096282
aF105.51303237041384
aF34.48187929913333
aF96.79876032264049
aF31.064449134018133
aF11.704699910719626
aF1.4142135623730951
aI0
aF15.0
aF9.219544457292887
aF16.77050983124842
aF25.059928172283335
aF31.953090617340916
aF30.675723300355934
aF13.0
aF12.539936203984453
aF11.40175425099138
aF23.769728648009426
aF28.792360097775937
aF29.154759474226502
aa(lp34
F65.25335240430181
aF63.90618123468183
aF65.85020880756568
aF36.24913792078372
aF37.16180835212409
aF33.54101966249684
aF33.734255586866
aF30.01666203960727
aF60.207972893961475
aF63.120915709454025
aF81.16803558051654
aF103.60019305001319
aF99.72462083156798
aF100.06123125366787
aF99.00505037623081
aF63.89053137985315
aF70.00714249274856
aF81.8413098624405
aF90.47098982546837
aF78.10249675906654
aF68.46897107449476
aF67.97242087788253
aF116.55899793666725
aF117.5457357797381
aF65.2559583486443
aF93.00537618869137
aF115.41230437002807
aF31.622776601683793
aF84.64632301523794
aF21.95449840010015
aF23.53720459187964
aF16.401219466856727
aF15.0
aI0
aF24.08318915758459
aF27.04163456597992
aF39.96248240537617
aF46.51881339845203
aF45.18849411078001
aF27.784887978899608
aF27.35415873317986
aF23.769728648009426
aF38.07886552931954
aF39.01281840626232
aF39.05124837953327
aa(lp35
F45.0111097397076
aF42.42640687119285
aF43.660622991432454
aF17.26267650163207
aF18.24828759089466
aF29.410882339705484
aF30.23243291566195
aF23.600847442411894
aF46.95742752749558
aF42.547032799009614
aF59.33169473392783
aF79.63039620647382
aF75.66372975210778
aF76.0148011902945
aF74.95331880577403
aF43.104524124504614
aF48.05205510693585
aF58.872744118140105
aF68.00735254367721
aF63.245553203367585
aF50.635955604688654
aF50.1422975141746
aF103.12128781197411
aF104.06248123122954
aF45.011333017363526
aF76.90253571892151
aF101.84301645179212
aF37.36308338453881
aF105.47511554864494
aF37.33630940518894
aF12.083045973594572
aF7.810249675906654
aF9.219544457292887
aF24.08318915758459
aI0
aF13.0862523283024
aF16.76305461424021
aF24.331050121192877
aF23.194827009486403
aF6.324555320336759
aF5.852349955359813
aF11.180339887498949
aF17.029386365926403
aF27.018512172212592
aF27.65863337187866
aa(lp36
F54.66488818245218
aF51.119956963988145
aF51.50242712727236
aF9.604686356149273
aF10.404326023342406
aF16.77050983124842
aF17.67059704707229
aF10.965856099730654
aF59.42432162002356
aF52.04325124355702
aF67.06713054842886
aF82.51212032180484
aF76.55880093104906
aF76.72352963726317
aF75.73803535872844
aF52.40467536394057
aF56.00223209837265
aF65.02499519415592
aF74.74122022017035
aF75.04165509901817
aF61.54063698077881
aF61.06144446375307
aF114.96195022702076
aF115.8846409150065
aF54.66333414639104
aF88.08092869628476
aF113.6540804370877
aF27.004629232781554
aF111.60757142774858
aF31.531730050855124
aF24.82438317461282
aF16.00781059358212
aF16.77050983124842
aF27.04163456597992
aF13.0862523283024
aI0
aF25.401771591761076
aF33.455193916640205
aF32.65348373451139
aF18.9010581714358
aF18.506755523321747
aF24.005207768315607
aF28.040149785619906
aF40.02811511925087
aF40.697051490249265
aa(lp37
F29.274562336608895
aF26.019223662515376
aF26.9675731203236
aF22.47220505424423
aF23.021728866442675
aF41.7612260356422
aF42.720018726587654
aF36.138621999185304
aF36.76955262170047
aF26.669270706189174
aF42.66438795998368
aF63.89053137985315
aF61.220911460055866
aF61.702917273010684
aF60.60528029800704
aF27.073972741361768
aF31.400636936215164
aF42.15447781671598
aF51.24451190127583
aF50.60632371551998
aF36.40054944640259
aF35.9339672176619
aF90.33825324855468
aF91.23595782365635
aF29.2731976387958
aF62.96824596572466
aF89.0
aF52.23983154643591
aF116.76472069936193
aF53.9351462406472
aF19.4164878389476
aF23.706539182259394
aF25.059928172283335
aF39.96248240537617
aF16.76305461424021
aF25.401771591761076
aI0
aF8.06225774829855
aF7.280109889280518
aF12.206555615733702
aF12.619429464123963
aF18.601075237738275
aF6.082762530298219
aF22.561028345356956
aF23.53720459187964
aa(lp38
F21.213203435596427
aF18.110770276274835
aF19.448650338776723
aF29.966648127543394
aF30.4138126514911
aF49.72926703662542
aF50.695167422546305
aF44.14748010928823
aF30.805843601498726
aF18.607794065928395
aF35.04639781775011
aF58.69412236331676
aF57.4543296888929
aF58.0538543078752
aF56.938563381947034
aF19.026297590440446
aF23.769728648009426
aF35.35533905932738
aF44.01136216933077
aF43.266615305567875
aF28.635642126552707
aF28.182441342083905
aF82.76472678623425
aF83.64807230295268
aF21.21179153207008
aF55.154328932550705
aF81.41252974819048
aF60.29925372672534
aF119.8874472161285
aF61.66036003787198
aF24.20743687382041
aF30.675723300355934
aF31.953090617340916
aF46.51881339845203
aF24.331050121192877
aF33.455193916640205
aF8.06225774829855
aI0
aF1.4142135623730951
aF18.973665961010276
aF19.448650338776723
aF23.600847442411894
aF8.602325267042627
aF21.213203435596427
aF22.20360331117452
aa(lp39
F22.090722034374522
aF19.235384061671343
aF20.71834935510066
aF29.5296461204668
aF30.01666203960727
aF49.040799340956916
aF50.0
aF43.41658669218482
aF30.610455730027933
aF19.525624189766635
aF36.26637561157718
aF60.108235708594876
aF58.83026432033091
aF59.42432162002356
aF58.309518948453004
aF20.0
aF25.0
aF36.71511950137164
aF45.31004303683677
aF43.56604182158393
aF29.154759474226502
aF28.692333470807146
aF83.18653737234169
aF84.07734534343957
aF22.089818921847233
aF55.71355310873648
aF81.8413098624405
aF59.413803110051795
aF118.51160280748886
aF60.530983801686226
aF22.80350850198276
aF29.410882339705484
aF30.675723300355934
aF45.18849411078001
aF23.194827009486403
aF32.65348373451139
aF7.280109889280518
aF1.4142135623730951
aI0
aF17.72004514666935
aF18.200274723201296
aF22.20360331117452
aF7.211102550927978
aF20.09975124224178
aF21.095023109728988
aa(lp40
F39.11521443121589
aF36.87817782917155
aF38.421998906876254
aF21.02379604162864
aF21.93171219946131
aF35.510561809129406
aF36.359317925395686
aF29.68164415931166
aF40.70626487409524
aF36.718523935474316
aF53.983793864455286
aF76.05918747922567
aF73.0
aF73.43194127898295
aF72.34638899074369
aF37.33630940518894
aF42.720018726587654
aF54.12947441089743
aF62.96824596572466
aF56.92099788303083
aF44.40720662234904
aF43.91184350491334
aF96.79876032264049
aF97.73944955850733
aF39.115982666935516
aF70.61161377563892
aF95.51963149007642
aF43.68065933568311
aF106.02358228243375
aF43.104524124504614
aF9.055385138137417
aF11.704699910719626
aF13.0
aF27.784887978899608
aF6.324555320336759
aF18.9010581714358
aF12.206555615733702
aF18.973665961010276
aF17.72004514666935
aI0
aF0.5
aF8.06225774829855
aF11.045361017187261
aF21.213203435596427
aF21.93171219946131
aa(lp41
F39.613760235554516
aF37.36642878306676
aF38.897300677553446
aF20.81465829649865
aF21.73131381210073
aF35.0891721190455
aF35.9339672176619
aF29.261749776799064
aF41.14911906711977
aF37.21558813185679
aF54.46558546458488
aF76.4476945368531
aF73.32973476019124
aF73.7563556583431
aF72.67220926874316
aF37.83186487605389
aF43.200115740585694
aF54.582506355058484
aF63.43697659882602
aF57.39555731936053
aF44.90267252625394
aF44.40720662234904
aF97.26895702124085
aF98.21023368264633
aF39.61451880308532
aF71.10028129339574
aF95.99088498394
aF43.200115740585694
aF105.81233387464809
aF42.60575078554537
aF9.013878188659973
aF11.236102527122116
aF12.539936203984453
aF27.35415873317986
aF5.852349955359813
aF18.506755523321747
aF12.619429464123963
aF19.448650338776723
aF18.200274723201296
aF0.5
aI0
aF8.0156097709407
aF11.543396380615196
aF21.569654610122992
aF22.276669409945463
aa(lp42
F41.48493702538308
aF40.311288741492746
aF42.5
aF28.160255680657446
aF29.120439557122072
aF39.6232255123179
aF40.36087214122113
aF33.94112549695428
aF38.600518131237564
aF39.37321424522006
aF57.578207683115664
aF82.07313811473277
aF79.81227975693966
aF80.30099625782982
aF79.20227269466452
aF40.162171256046406
aF46.51881339845203
aF58.83026432033091
aF67.08203932499369
aF55.90169943749474
aF45.044422518220834
aF44.54492114708477
aF95.33624704172071
aF96.30160954002794
aF41.48758971065926
aF70.34912934784623
aF94.11163583744573
aF45.617978911828175
aF98.38699100999075
aF42.2965719651132
aF1.0
aF10.770329614269007
aF11.40175425099138
aF23.769728648009426
aF11.180339887498949
aF24.005207768315607
aF18.601075237738275
aF23.600847442411894
aF22.20360331117452
aF8.06225774829855
aF8.0156097709407
aI0
aF15.0
aF17.46424919657298
aF17.88854381999832
aa(lp43
F28.071337695236398
aF25.96150997149434
aF27.77138815399763
aF26.90724809414742
aF27.586228448267445
aF44.77722635447622
aF45.69463863518345
aF39.0
aF32.01562118716424
aF25.675864152935535
aF43.165379646193315
aF67.17886572427373
aF65.45991139621256
aF66.00946901770988
aF64.89992295835181
aF26.30589287593181
aF31.953090617340916
aF43.9089968002003
aF52.392747589718944
aF47.01063709417264
aF33.734255586866
aF33.24530041975858
aF86.92525524840292
aF87.84645695758026
aF28.072051937825993
aF60.166435825965294
aF85.61541917201598
aF54.12947441089743
aF112.0044641967453
aF54.147945482723536
aF15.620499351813308
aF22.561028345356956
aF23.769728648009426
aF38.07886552931954
aF17.029386365926403
aF28.040149785619906
aF6.082762530298219
aF8.602325267042627
aF7.211102550927978
aF11.045361017187261
aF11.543396380615196
aF15.0
aI0
aF16.492422502470642
aF17.46424919657298
aa(lp44
F30.0
aF31.144823004794873
aF34.514489710844636
aF41.617304093369626
aF42.43819034784589
aF56.4003546088143
aF57.201398584300364
aF50.60632371551998
aF21.37755832643195
aF28.692333470807146
aF47.32071428032337
aF76.84399781375251
aF77.38862965578342
aF78.08488970345032
aF76.96752561957543
aF29.732137494637012
aF37.48332962798263
aF50.99019513592785
aF57.48912940721924
aF39.11521443121589
aF30.364452901377952
aF29.88728826775691
aF78.10249675906654
aF79.07591289387686
aF30.006001066453358
aF54.0
aF76.90253571892151
aF63.071388124885914
aF100.80178569846865
aF59.22837157984339
aF17.08800749063506
aF28.231188426986208
aF28.792360097775937
aF39.01281840626232
aF27.018512172212592
aF40.02811511925087
aF22.561028345356956
aF21.213203435596427
aF20.09975124224178
aF21.213203435596427
aF21.569654610122992
aF17.46424919657298
aF16.492422502470642
aI0
aF1.0
aa(lp45
F30.610455730027933
aF31.89043743820395
aF35.302266216207705
aF42.43819034784589
aF43.266615305567875
aF57.0087712549569
aF57.8013840664737
aF51.22499389946279
aF21.213203435596427
aF29.364093720052047
aF47.95049530505394
aF77.6659513557904
aF78.29431652425353
aF78.99525302193797
aF77.87810988975015
aF30.4138126514911
aF38.2099463490856
aF51.73973328110612
aF58.137767414994535
aF39.05124837953327
aF30.675723300355934
aF30.20347662107791
aF77.87810988975015
aF78.85429601486528
aF30.61666376338219
aF54.00925846556311
aF76.68767828015137
aF63.50590523722971
aF100.0
aF59.43904440685432
aF17.46424919657298
aF28.635642126552707
aF29.154759474226502
aF39.05124837953327
aF27.65863337187866
aF40.697051490249265
aF23.53720459187964
aF22.20360331117452
aF21.095023109728988
aF21.93171219946131
aF22.276669409945463
aF17.88854381999832
aF17.46424919657298
aF1.0
aI0
aa.